
./shellc0de-3a3843e358017d949df6ad4c966e7d15:     file format elf64-x86-64


Disassembly of section .init:

00000000000006e8 <_init>:
 6e8:	48 83 ec 08          	sub    rsp,0x8
 6ec:	48 8b 05 f5 08 20 00 	mov    rax,QWORD PTR [rip+0x2008f5]        # 200fe8 <__gmon_start__>
 6f3:	48 85 c0             	test   rax,rax
 6f6:	74 02                	je     6fa <_init+0x12>
 6f8:	ff d0                	call   rax
 6fa:	48 83 c4 08          	add    rsp,0x8
 6fe:	c3                   	ret    

Disassembly of section .plt:

0000000000000700 <.plt>:
 700:	ff 35 92 08 20 00    	push   QWORD PTR [rip+0x200892]        # 200f98 <_GLOBAL_OFFSET_TABLE_+0x8>
 706:	ff 25 94 08 20 00    	jmp    QWORD PTR [rip+0x200894]        # 200fa0 <_GLOBAL_OFFSET_TABLE_+0x10>
 70c:	0f 1f 40 00          	nop    DWORD PTR [rax+0x0]

0000000000000710 <_exit@plt>:
 710:	ff 25 92 08 20 00    	jmp    QWORD PTR [rip+0x200892]        # 200fa8 <_exit@GLIBC_2.2.5>
 716:	68 00 00 00 00       	push   0x0
 71b:	e9 e0 ff ff ff       	jmp    700 <.plt>

0000000000000720 <puts@plt>:
 720:	ff 25 8a 08 20 00    	jmp    QWORD PTR [rip+0x20088a]        # 200fb0 <puts@GLIBC_2.2.5>
 726:	68 01 00 00 00       	push   0x1
 72b:	e9 d0 ff ff ff       	jmp    700 <.plt>

0000000000000730 <__stack_chk_fail@plt>:
 730:	ff 25 82 08 20 00    	jmp    QWORD PTR [rip+0x200882]        # 200fb8 <__stack_chk_fail@GLIBC_2.4>
 736:	68 02 00 00 00       	push   0x2
 73b:	e9 c0 ff ff ff       	jmp    700 <.plt>

0000000000000740 <memset@plt>:
 740:	ff 25 7a 08 20 00    	jmp    QWORD PTR [rip+0x20087a]        # 200fc0 <memset@GLIBC_2.2.5>
 746:	68 03 00 00 00       	push   0x3
 74b:	e9 b0 ff ff ff       	jmp    700 <.plt>

0000000000000750 <read@plt>:
 750:	ff 25 72 08 20 00    	jmp    QWORD PTR [rip+0x200872]        # 200fc8 <read@GLIBC_2.2.5>
 756:	68 04 00 00 00       	push   0x4
 75b:	e9 a0 ff ff ff       	jmp    700 <.plt>

0000000000000760 <setvbuf@plt>:
 760:	ff 25 6a 08 20 00    	jmp    QWORD PTR [rip+0x20086a]        # 200fd0 <setvbuf@GLIBC_2.2.5>
 766:	68 05 00 00 00       	push   0x5
 76b:	e9 90 ff ff ff       	jmp    700 <.plt>

Disassembly of section .plt.got:

0000000000000770 <__cxa_finalize@plt>:
 770:	ff 25 82 08 20 00    	jmp    QWORD PTR [rip+0x200882]        # 200ff8 <__cxa_finalize@GLIBC_2.2.5>
 776:	66 90                	xchg   ax,ax

Disassembly of section .text:

0000000000000780 <_start>:
 780:	31 ed                	xor    ebp,ebp
 782:	49 89 d1             	mov    r9,rdx
 785:	5e                   	pop    rsi
 786:	48 89 e2             	mov    rdx,rsp
 789:	48 83 e4 f0          	and    rsp,0xfffffffffffffff0
 78d:	50                   	push   rax
 78e:	54                   	push   rsp
 78f:	4c 8d 05 da 02 00 00 	lea    r8,[rip+0x2da]        # a70 <__libc_csu_fini>
 796:	48 8d 0d 63 02 00 00 	lea    rcx,[rip+0x263]        # a00 <__libc_csu_init>
 79d:	48 8d 3d 47 01 00 00 	lea    rdi,[rip+0x147]        # 8eb <main>
 7a4:	ff 15 36 08 20 00    	call   QWORD PTR [rip+0x200836]        # 200fe0 <__libc_start_main@GLIBC_2.2.5>
 7aa:	f4                   	hlt    
 7ab:	0f 1f 44 00 00       	nop    DWORD PTR [rax+rax*1+0x0]

00000000000007b0 <deregister_tm_clones>:
 7b0:	48 8d 3d 59 08 20 00 	lea    rdi,[rip+0x200859]        # 201010 <__TMC_END__>
 7b7:	55                   	push   rbp
 7b8:	48 8d 05 51 08 20 00 	lea    rax,[rip+0x200851]        # 201010 <__TMC_END__>
 7bf:	48 39 f8             	cmp    rax,rdi
 7c2:	48 89 e5             	mov    rbp,rsp
 7c5:	74 19                	je     7e0 <deregister_tm_clones+0x30>
 7c7:	48 8b 05 0a 08 20 00 	mov    rax,QWORD PTR [rip+0x20080a]        # 200fd8 <_ITM_deregisterTMCloneTable>
 7ce:	48 85 c0             	test   rax,rax
 7d1:	74 0d                	je     7e0 <deregister_tm_clones+0x30>
 7d3:	5d                   	pop    rbp
 7d4:	ff e0                	jmp    rax
 7d6:	66 2e 0f 1f 84 00 00 	nop    WORD PTR cs:[rax+rax*1+0x0]
 7dd:	00 00 00 
 7e0:	5d                   	pop    rbp
 7e1:	c3                   	ret    
 7e2:	0f 1f 40 00          	nop    DWORD PTR [rax+0x0]
 7e6:	66 2e 0f 1f 84 00 00 	nop    WORD PTR cs:[rax+rax*1+0x0]
 7ed:	00 00 00 

00000000000007f0 <register_tm_clones>:
 7f0:	48 8d 3d 19 08 20 00 	lea    rdi,[rip+0x200819]        # 201010 <__TMC_END__>
 7f7:	48 8d 35 12 08 20 00 	lea    rsi,[rip+0x200812]        # 201010 <__TMC_END__>
 7fe:	55                   	push   rbp
 7ff:	48 29 fe             	sub    rsi,rdi
 802:	48 89 e5             	mov    rbp,rsp
 805:	48 c1 fe 03          	sar    rsi,0x3
 809:	48 89 f0             	mov    rax,rsi
 80c:	48 c1 e8 3f          	shr    rax,0x3f
 810:	48 01 c6             	add    rsi,rax
 813:	48 d1 fe             	sar    rsi,1
 816:	74 18                	je     830 <register_tm_clones+0x40>
 818:	48 8b 05 d1 07 20 00 	mov    rax,QWORD PTR [rip+0x2007d1]        # 200ff0 <_ITM_registerTMCloneTable>
 81f:	48 85 c0             	test   rax,rax
 822:	74 0c                	je     830 <register_tm_clones+0x40>
 824:	5d                   	pop    rbp
 825:	ff e0                	jmp    rax
 827:	66 0f 1f 84 00 00 00 	nop    WORD PTR [rax+rax*1+0x0]
 82e:	00 00 
 830:	5d                   	pop    rbp
 831:	c3                   	ret    
 832:	0f 1f 40 00          	nop    DWORD PTR [rax+0x0]
 836:	66 2e 0f 1f 84 00 00 	nop    WORD PTR cs:[rax+rax*1+0x0]
 83d:	00 00 00 

0000000000000840 <__do_global_dtors_aux>:
 840:	80 3d 01 08 20 00 00 	cmp    BYTE PTR [rip+0x200801],0x0        # 201048 <completed.7697>
 847:	75 2f                	jne    878 <__do_global_dtors_aux+0x38>
 849:	48 83 3d a7 07 20 00 	cmp    QWORD PTR [rip+0x2007a7],0x0        # 200ff8 <__cxa_finalize@GLIBC_2.2.5>
 850:	00 
 851:	55                   	push   rbp
 852:	48 89 e5             	mov    rbp,rsp
 855:	74 0c                	je     863 <__do_global_dtors_aux+0x23>
 857:	48 8b 3d aa 07 20 00 	mov    rdi,QWORD PTR [rip+0x2007aa]        # 201008 <__dso_handle>
 85e:	e8 0d ff ff ff       	call   770 <__cxa_finalize@plt>
 863:	e8 48 ff ff ff       	call   7b0 <deregister_tm_clones>
 868:	c6 05 d9 07 20 00 01 	mov    BYTE PTR [rip+0x2007d9],0x1        # 201048 <completed.7697>
 86f:	5d                   	pop    rbp
 870:	c3                   	ret    
 871:	0f 1f 80 00 00 00 00 	nop    DWORD PTR [rax+0x0]
 878:	f3 c3                	repz ret 
 87a:	66 0f 1f 44 00 00    	nop    WORD PTR [rax+rax*1+0x0]

0000000000000880 <frame_dummy>:
 880:	55                   	push   rbp
 881:	48 89 e5             	mov    rbp,rsp
 884:	5d                   	pop    rbp
 885:	e9 66 ff ff ff       	jmp    7f0 <register_tm_clones>

000000000000088a <init>:
 88a:	55                   	push   rbp
 88b:	48 89 e5             	mov    rbp,rsp
 88e:	48 8b 05 9b 07 20 00 	mov    rax,QWORD PTR [rip+0x20079b]        # 201030 <stdin@@GLIBC_2.2.5>
 895:	b9 00 00 00 00       	mov    ecx,0x0
 89a:	ba 02 00 00 00       	mov    edx,0x2
 89f:	be 00 00 00 00       	mov    esi,0x0
 8a4:	48 89 c7             	mov    rdi,rax
 8a7:	e8 b4 fe ff ff       	call   760 <setvbuf@plt>
 8ac:	48 8b 05 6d 07 20 00 	mov    rax,QWORD PTR [rip+0x20076d]        # 201020 <stdout@@GLIBC_2.2.5>
 8b3:	b9 00 00 00 00       	mov    ecx,0x0
 8b8:	ba 02 00 00 00       	mov    edx,0x2
 8bd:	be 00 00 00 00       	mov    esi,0x0
 8c2:	48 89 c7             	mov    rdi,rax
 8c5:	e8 96 fe ff ff       	call   760 <setvbuf@plt>
 8ca:	48 8b 05 6f 07 20 00 	mov    rax,QWORD PTR [rip+0x20076f]        # 201040 <stderr@@GLIBC_2.2.5>
 8d1:	b9 00 00 00 00       	mov    ecx,0x0
 8d6:	ba 02 00 00 00       	mov    edx,0x2
 8db:	be 00 00 00 00       	mov    esi,0x0
 8e0:	48 89 c7             	mov    rdi,rax
 8e3:	e8 78 fe ff ff       	call   760 <setvbuf@plt>
 8e8:	90                   	nop
 8e9:	5d                   	pop    rbp
 8ea:	c3                   	ret    

00000000000008eb <main>:
 8eb:	55                   	push   rbp
 8ec:	48 89 e5             	mov    rbp,rsp
 8ef:	48 81 ec 20 01 00 00 	sub    rsp,0x120
 8f6:	64 48 8b 04 25 28 00 	mov    rax,QWORD PTR fs:0x28
 8fd:	00 00 
 8ff:	48 89 45 f8          	mov    QWORD PTR [rbp-0x8],rax
 903:	31 c0                	xor    eax,eax
 905:	b8 00 00 00 00       	mov    eax,0x0
 90a:	e8 7b ff ff ff       	call   88a <init>
 90f:	48 8d 85 f0 fe ff ff 	lea    rax,[rbp-0x110]
 916:	ba 00 01 00 00       	mov    edx,0x100
 91b:	be cc 00 00 00       	mov    esi,0xcc
 920:	48 89 c7             	mov    rdi,rax
 923:	e8 18 fe ff ff       	call   740 <memset@plt>
 928:	48 8d 3d 55 01 00 00 	lea    rdi,[rip+0x155]        # a84 <_IO_stdin_used+0x4>
 92f:	e8 ec fd ff ff       	call   720 <puts@plt>
 934:	48 8d 85 f0 fe ff ff 	lea    rax,[rbp-0x110]
 93b:	ba 00 01 00 00       	mov    edx,0x100
 940:	48 89 c6             	mov    rsi,rax
 943:	bf 00 00 00 00       	mov    edi,0x0
 948:	e8 03 fe ff ff       	call   750 <read@plt>
 94d:	c7 85 e4 fe ff ff 00 	mov    DWORD PTR [rbp-0x11c],0x0
 954:	00 00 00 
 957:	eb 59                	jmp    9b2 <main+0xc7>
 959:	8b 85 e4 fe ff ff    	mov    eax,DWORD PTR [rbp-0x11c]
 95f:	48 98                	cdqe   
 961:	0f b6 84 05 f0 fe ff 	movzx  eax,BYTE PTR [rbp+rax*1-0x110]
 968:	ff 
 969:	84 c0                	test   al,al
 96b:	74 28                	je     995 <main+0xaa>
 96d:	8b 85 e4 fe ff ff    	mov    eax,DWORD PTR [rbp-0x11c]
 973:	48 98                	cdqe   
 975:	0f b6 84 05 f0 fe ff 	movzx  eax,BYTE PTR [rbp+rax*1-0x110]
 97c:	ff 
 97d:	3c 05                	cmp    al,0x5
 97f:	74 14                	je     995 <main+0xaa>
 981:	8b 85 e4 fe ff ff    	mov    eax,DWORD PTR [rbp-0x11c]
 987:	48 98                	cdqe   
 989:	0f b6 84 05 f0 fe ff 	movzx  eax,BYTE PTR [rbp+rax*1-0x110]
 990:	ff 
 991:	3c 0f                	cmp    al,0xf
 993:	75 16                	jne    9ab <main+0xc0>
 995:	48 8d 3d f4 00 00 00 	lea    rdi,[rip+0xf4]        # a90 <_IO_stdin_used+0x10>
 99c:	e8 7f fd ff ff       	call   720 <puts@plt>
 9a1:	bf ff ff ff ff       	mov    edi,0xffffffff
 9a6:	e8 65 fd ff ff       	call   710 <_exit@plt>
 9ab:	83 85 e4 fe ff ff 01 	add    DWORD PTR [rbp-0x11c],0x1
 9b2:	81 bd e4 fe ff ff ff 	cmp    DWORD PTR [rbp-0x11c],0xff
 9b9:	00 00 00 
 9bc:	7e 9b                	jle    959 <main+0x6e>
 9be:	48 8d 85 f0 fe ff ff 	lea    rax,[rbp-0x110]
 9c5:	48 89 85 e8 fe ff ff 	mov    QWORD PTR [rbp-0x118],rax
 9cc:	48 8b 95 e8 fe ff ff 	mov    rdx,QWORD PTR [rbp-0x118]
 9d3:	b8 00 00 00 00       	mov    eax,0x0
 9d8:	ff d2                	call   rdx
 9da:	b8 00 00 00 00       	mov    eax,0x0
 9df:	48 8b 4d f8          	mov    rcx,QWORD PTR [rbp-0x8]
 9e3:	64 48 33 0c 25 28 00 	xor    rcx,QWORD PTR fs:0x28
 9ea:	00 00 
 9ec:	74 05                	je     9f3 <main+0x108>
 9ee:	e8 3d fd ff ff       	call   730 <__stack_chk_fail@plt>
 9f3:	c9                   	leave  
 9f4:	c3                   	ret    
 9f5:	66 2e 0f 1f 84 00 00 	nop    WORD PTR cs:[rax+rax*1+0x0]
 9fc:	00 00 00 
 9ff:	90                   	nop

0000000000000a00 <__libc_csu_init>:
 a00:	41 57                	push   r15
 a02:	41 56                	push   r14
 a04:	49 89 d7             	mov    r15,rdx
 a07:	41 55                	push   r13
 a09:	41 54                	push   r12
 a0b:	4c 8d 25 7e 03 20 00 	lea    r12,[rip+0x20037e]        # 200d90 <__frame_dummy_init_array_entry>
 a12:	55                   	push   rbp
 a13:	48 8d 2d 7e 03 20 00 	lea    rbp,[rip+0x20037e]        # 200d98 <__init_array_end>
 a1a:	53                   	push   rbx
 a1b:	41 89 fd             	mov    r13d,edi
 a1e:	49 89 f6             	mov    r14,rsi
 a21:	4c 29 e5             	sub    rbp,r12
 a24:	48 83 ec 08          	sub    rsp,0x8
 a28:	48 c1 fd 03          	sar    rbp,0x3
 a2c:	e8 b7 fc ff ff       	call   6e8 <_init>
 a31:	48 85 ed             	test   rbp,rbp
 a34:	74 20                	je     a56 <__libc_csu_init+0x56>
 a36:	31 db                	xor    ebx,ebx
 a38:	0f 1f 84 00 00 00 00 	nop    DWORD PTR [rax+rax*1+0x0]
 a3f:	00 
 a40:	4c 89 fa             	mov    rdx,r15
 a43:	4c 89 f6             	mov    rsi,r14
 a46:	44 89 ef             	mov    edi,r13d
 a49:	41 ff 14 dc          	call   QWORD PTR [r12+rbx*8]
 a4d:	48 83 c3 01          	add    rbx,0x1
 a51:	48 39 dd             	cmp    rbp,rbx
 a54:	75 ea                	jne    a40 <__libc_csu_init+0x40>
 a56:	48 83 c4 08          	add    rsp,0x8
 a5a:	5b                   	pop    rbx
 a5b:	5d                   	pop    rbp
 a5c:	41 5c                	pop    r12
 a5e:	41 5d                	pop    r13
 a60:	41 5e                	pop    r14
 a62:	41 5f                	pop    r15
 a64:	c3                   	ret    
 a65:	90                   	nop
 a66:	66 2e 0f 1f 84 00 00 	nop    WORD PTR cs:[rax+rax*1+0x0]
 a6d:	00 00 00 

0000000000000a70 <__libc_csu_fini>:
 a70:	f3 c3                	repz ret 

Disassembly of section .fini:

0000000000000a74 <_fini>:
 a74:	48 83 ec 08          	sub    rsp,0x8
 a78:	48 83 c4 08          	add    rsp,0x8
 a7c:	c3                   	ret    
