
./shelll:     file format elf64-x86-64


Disassembly of section .init:

0000000000001000 <_init>:
    1000:	f3 0f 1e fa          	endbr64 
    1004:	48 83 ec 08          	sub    rsp,0x8
    1008:	48 8b 05 d9 2f 00 00 	mov    rax,QWORD PTR [rip+0x2fd9]        # 3fe8 <__gmon_start__>
    100f:	48 85 c0             	test   rax,rax
    1012:	74 02                	je     1016 <_init+0x16>
    1014:	ff d0                	call   rax
    1016:	48 83 c4 08          	add    rsp,0x8
    101a:	c3                   	ret    

Disassembly of section .plt:

0000000000001020 <.plt>:
    1020:	ff 35 e2 2f 00 00    	push   QWORD PTR [rip+0x2fe2]        # 4008 <_GLOBAL_OFFSET_TABLE_+0x8>
    1026:	ff 25 e4 2f 00 00    	jmp    QWORD PTR [rip+0x2fe4]        # 4010 <_GLOBAL_OFFSET_TABLE_+0x10>
    102c:	0f 1f 40 00          	nop    DWORD PTR [rax+0x0]

0000000000001030 <_exit@plt>:
    1030:	ff 25 e2 2f 00 00    	jmp    QWORD PTR [rip+0x2fe2]        # 4018 <_exit@GLIBC_2.2.5>
    1036:	68 00 00 00 00       	push   0x0
    103b:	e9 e0 ff ff ff       	jmp    1020 <.plt>

0000000000001040 <puts@plt>:
    1040:	ff 25 da 2f 00 00    	jmp    QWORD PTR [rip+0x2fda]        # 4020 <puts@GLIBC_2.2.5>
    1046:	68 01 00 00 00       	push   0x1
    104b:	e9 d0 ff ff ff       	jmp    1020 <.plt>

0000000000001050 <__stack_chk_fail@plt>:
    1050:	ff 25 d2 2f 00 00    	jmp    QWORD PTR [rip+0x2fd2]        # 4028 <__stack_chk_fail@GLIBC_2.4>
    1056:	68 02 00 00 00       	push   0x2
    105b:	e9 c0 ff ff ff       	jmp    1020 <.plt>

0000000000001060 <memset@plt>:
    1060:	ff 25 ca 2f 00 00    	jmp    QWORD PTR [rip+0x2fca]        # 4030 <memset@GLIBC_2.2.5>
    1066:	68 03 00 00 00       	push   0x3
    106b:	e9 b0 ff ff ff       	jmp    1020 <.plt>

0000000000001070 <read@plt>:
    1070:	ff 25 c2 2f 00 00    	jmp    QWORD PTR [rip+0x2fc2]        # 4038 <read@GLIBC_2.2.5>
    1076:	68 04 00 00 00       	push   0x4
    107b:	e9 a0 ff ff ff       	jmp    1020 <.plt>

0000000000001080 <setvbuf@plt>:
    1080:	ff 25 ba 2f 00 00    	jmp    QWORD PTR [rip+0x2fba]        # 4040 <setvbuf@GLIBC_2.2.5>
    1086:	68 05 00 00 00       	push   0x5
    108b:	e9 90 ff ff ff       	jmp    1020 <.plt>

Disassembly of section .text:

0000000000001090 <_start>:
    1090:	f3 0f 1e fa          	endbr64 
    1094:	31 ed                	xor    ebp,ebp
    1096:	49 89 d1             	mov    r9,rdx
    1099:	5e                   	pop    rsi
    109a:	48 89 e2             	mov    rdx,rsp
    109d:	48 83 e4 f0          	and    rsp,0xfffffffffffffff0
    10a1:	50                   	push   rax
    10a2:	54                   	push   rsp
    10a3:	4c 8d 05 c6 02 00 00 	lea    r8,[rip+0x2c6]        # 1370 <__libc_csu_fini>
    10aa:	48 8d 0d 4f 02 00 00 	lea    rcx,[rip+0x24f]        # 1300 <__libc_csu_init>
    10b1:	48 8d 3d 32 01 00 00 	lea    rdi,[rip+0x132]        # 11ea <main>
    10b8:	ff 15 22 2f 00 00    	call   QWORD PTR [rip+0x2f22]        # 3fe0 <__libc_start_main@GLIBC_2.2.5>
    10be:	f4                   	hlt    
    10bf:	90                   	nop

00000000000010c0 <deregister_tm_clones>:
    10c0:	48 8d 3d 91 2f 00 00 	lea    rdi,[rip+0x2f91]        # 4058 <__TMC_END__>
    10c7:	48 8d 05 8a 2f 00 00 	lea    rax,[rip+0x2f8a]        # 4058 <__TMC_END__>
    10ce:	48 39 f8             	cmp    rax,rdi
    10d1:	74 15                	je     10e8 <deregister_tm_clones+0x28>
    10d3:	48 8b 05 fe 2e 00 00 	mov    rax,QWORD PTR [rip+0x2efe]        # 3fd8 <_ITM_deregisterTMCloneTable>
    10da:	48 85 c0             	test   rax,rax
    10dd:	74 09                	je     10e8 <deregister_tm_clones+0x28>
    10df:	ff e0                	jmp    rax
    10e1:	0f 1f 80 00 00 00 00 	nop    DWORD PTR [rax+0x0]
    10e8:	c3                   	ret    
    10e9:	0f 1f 80 00 00 00 00 	nop    DWORD PTR [rax+0x0]

00000000000010f0 <register_tm_clones>:
    10f0:	48 8d 3d 61 2f 00 00 	lea    rdi,[rip+0x2f61]        # 4058 <__TMC_END__>
    10f7:	48 8d 35 5a 2f 00 00 	lea    rsi,[rip+0x2f5a]        # 4058 <__TMC_END__>
    10fe:	48 29 fe             	sub    rsi,rdi
    1101:	48 89 f0             	mov    rax,rsi
    1104:	48 c1 ee 3f          	shr    rsi,0x3f
    1108:	48 c1 f8 03          	sar    rax,0x3
    110c:	48 01 c6             	add    rsi,rax
    110f:	48 d1 fe             	sar    rsi,1
    1112:	74 14                	je     1128 <register_tm_clones+0x38>
    1114:	48 8b 05 d5 2e 00 00 	mov    rax,QWORD PTR [rip+0x2ed5]        # 3ff0 <_ITM_registerTMCloneTable>
    111b:	48 85 c0             	test   rax,rax
    111e:	74 08                	je     1128 <register_tm_clones+0x38>
    1120:	ff e0                	jmp    rax
    1122:	66 0f 1f 44 00 00    	nop    WORD PTR [rax+rax*1+0x0]
    1128:	c3                   	ret    
    1129:	0f 1f 80 00 00 00 00 	nop    DWORD PTR [rax+0x0]

0000000000001130 <__do_global_dtors_aux>:
    1130:	f3 0f 1e fa          	endbr64 
    1134:	80 3d 4d 2f 00 00 00 	cmp    BYTE PTR [rip+0x2f4d],0x0        # 4088 <completed.7383>
    113b:	75 33                	jne    1170 <__do_global_dtors_aux+0x40>
    113d:	55                   	push   rbp
    113e:	48 83 3d b2 2e 00 00 	cmp    QWORD PTR [rip+0x2eb2],0x0        # 3ff8 <__cxa_finalize@GLIBC_2.2.5>
    1145:	00 
    1146:	48 89 e5             	mov    rbp,rsp
    1149:	74 0d                	je     1158 <__do_global_dtors_aux+0x28>
    114b:	48 8b 3d fe 2e 00 00 	mov    rdi,QWORD PTR [rip+0x2efe]        # 4050 <__dso_handle>
    1152:	ff 15 a0 2e 00 00    	call   QWORD PTR [rip+0x2ea0]        # 3ff8 <__cxa_finalize@GLIBC_2.2.5>
    1158:	e8 63 ff ff ff       	call   10c0 <deregister_tm_clones>
    115d:	c6 05 24 2f 00 00 01 	mov    BYTE PTR [rip+0x2f24],0x1        # 4088 <completed.7383>
    1164:	5d                   	pop    rbp
    1165:	c3                   	ret    
    1166:	66 2e 0f 1f 84 00 00 	nop    WORD PTR cs:[rax+rax*1+0x0]
    116d:	00 00 00 
    1170:	c3                   	ret    
    1171:	66 66 2e 0f 1f 84 00 	data16 nop WORD PTR cs:[rax+rax*1+0x0]
    1178:	00 00 00 00 
    117c:	0f 1f 40 00          	nop    DWORD PTR [rax+0x0]

0000000000001180 <frame_dummy>:
    1180:	f3 0f 1e fa          	endbr64 
    1184:	e9 67 ff ff ff       	jmp    10f0 <register_tm_clones>

0000000000001189 <init>:
    1189:	55                   	push   rbp
    118a:	48 89 e5             	mov    rbp,rsp
    118d:	48 8b 05 dc 2e 00 00 	mov    rax,QWORD PTR [rip+0x2edc]        # 4070 <stdin@@GLIBC_2.2.5>
    1194:	b9 00 00 00 00       	mov    ecx,0x0
    1199:	ba 02 00 00 00       	mov    edx,0x2
    119e:	be 00 00 00 00       	mov    esi,0x0
    11a3:	48 89 c7             	mov    rdi,rax
    11a6:	e8 d5 fe ff ff       	call   1080 <setvbuf@plt>
    11ab:	48 8b 05 ae 2e 00 00 	mov    rax,QWORD PTR [rip+0x2eae]        # 4060 <stdout@@GLIBC_2.2.5>
    11b2:	b9 00 00 00 00       	mov    ecx,0x0
    11b7:	ba 02 00 00 00       	mov    edx,0x2
    11bc:	be 00 00 00 00       	mov    esi,0x0
    11c1:	48 89 c7             	mov    rdi,rax
    11c4:	e8 b7 fe ff ff       	call   1080 <setvbuf@plt>
    11c9:	48 8b 05 b0 2e 00 00 	mov    rax,QWORD PTR [rip+0x2eb0]        # 4080 <stderr@@GLIBC_2.2.5>
    11d0:	b9 00 00 00 00       	mov    ecx,0x0
    11d5:	ba 02 00 00 00       	mov    edx,0x2
    11da:	be 00 00 00 00       	mov    esi,0x0
    11df:	48 89 c7             	mov    rdi,rax
    11e2:	e8 99 fe ff ff       	call   1080 <setvbuf@plt>
    11e7:	90                   	nop
    11e8:	5d                   	pop    rbp
    11e9:	c3                   	ret    

00000000000011ea <main>:
    11ea:	55                   	push   rbp
    11eb:	48 89 e5             	mov    rbp,rsp
    11ee:	48 81 ec 20 01 00 00 	sub    rsp,0x120
    11f5:	64 48 8b 04 25 28 00 	mov    rax,QWORD PTR fs:0x28
    11fc:	00 00 
    11fe:	48 89 45 f8          	mov    QWORD PTR [rbp-0x8],rax
    1202:	31 c0                	xor    eax,eax
    1204:	b8 00 00 00 00       	mov    eax,0x0
    1209:	e8 7b ff ff ff       	call   1189 <init>
    120e:	48 8d 85 f0 fe ff ff 	lea    rax,[rbp-0x110]
    1215:	ba 00 01 00 00       	mov    edx,0x100
    121a:	be cc 00 00 00       	mov    esi,0xcc
    121f:	48 89 c7             	mov    rdi,rax
    1222:	e8 39 fe ff ff       	call   1060 <memset@plt>
    1227:	48 8d 3d d6 0d 00 00 	lea    rdi,[rip+0xdd6]        # 2004 <_IO_stdin_used+0x4>
    122e:	e8 0d fe ff ff       	call   1040 <puts@plt>
    1233:	48 8d 85 f0 fe ff ff 	lea    rax,[rbp-0x110]
    123a:	ba 00 01 00 00       	mov    edx,0x100
    123f:	48 89 c6             	mov    rsi,rax
    1242:	bf 00 00 00 00       	mov    edi,0x0
    1247:	e8 24 fe ff ff       	call   1070 <read@plt>
    124c:	c7 85 e4 fe ff ff 00 	mov    DWORD PTR [rbp-0x11c],0x0
    1253:	00 00 00 
    1256:	eb 59                	jmp    12b1 <main+0xc7>
    1258:	8b 85 e4 fe ff ff    	mov    eax,DWORD PTR [rbp-0x11c]
    125e:	48 98                	cdqe   
    1260:	0f b6 84 05 f0 fe ff 	movzx  eax,BYTE PTR [rbp+rax*1-0x110]
    1267:	ff 
    1268:	84 c0                	test   al,al
    126a:	74 28                	je     1294 <main+0xaa>
    126c:	8b 85 e4 fe ff ff    	mov    eax,DWORD PTR [rbp-0x11c]
    1272:	48 98                	cdqe   
    1274:	0f b6 84 05 f0 fe ff 	movzx  eax,BYTE PTR [rbp+rax*1-0x110]
    127b:	ff 
    127c:	3c 05                	cmp    al,0x5
    127e:	74 14                	je     1294 <main+0xaa>
    1280:	8b 85 e4 fe ff ff    	mov    eax,DWORD PTR [rbp-0x11c]
    1286:	48 98                	cdqe   
    1288:	0f b6 84 05 f0 fe ff 	movzx  eax,BYTE PTR [rbp+rax*1-0x110]
    128f:	ff 
    1290:	3c 0f                	cmp    al,0xf
    1292:	75 16                	jne    12aa <main+0xc0>
    1294:	48 8d 3d 75 0d 00 00 	lea    rdi,[rip+0xd75]        # 2010 <_IO_stdin_used+0x10>
    129b:	e8 a0 fd ff ff       	call   1040 <puts@plt>
    12a0:	bf ff ff ff ff       	mov    edi,0xffffffff
    12a5:	e8 86 fd ff ff       	call   1030 <_exit@plt>
    12aa:	83 85 e4 fe ff ff 01 	add    DWORD PTR [rbp-0x11c],0x1
    12b1:	81 bd e4 fe ff ff ff 	cmp    DWORD PTR [rbp-0x11c],0xff
    12b8:	00 00 00 
    12bb:	7e 9b                	jle    1258 <main+0x6e>
    12bd:	48 8d 85 f0 fe ff ff 	lea    rax,[rbp-0x110]
    12c4:	48 89 85 e8 fe ff ff 	mov    QWORD PTR [rbp-0x118],rax
    12cb:	48 8b 95 e8 fe ff ff 	mov    rdx,QWORD PTR [rbp-0x118]
    12d2:	b8 00 00 00 00       	mov    eax,0x0
    12d7:	ff d2                	call   rdx
    12d9:	b8 00 00 00 00       	mov    eax,0x0
    12de:	48 8b 4d f8          	mov    rcx,QWORD PTR [rbp-0x8]
    12e2:	64 48 33 0c 25 28 00 	xor    rcx,QWORD PTR fs:0x28
    12e9:	00 00 
    12eb:	74 05                	je     12f2 <main+0x108>
    12ed:	e8 5e fd ff ff       	call   1050 <__stack_chk_fail@plt>
    12f2:	c9                   	leave  
    12f3:	c3                   	ret    
    12f4:	66 2e 0f 1f 84 00 00 	nop    WORD PTR cs:[rax+rax*1+0x0]
    12fb:	00 00 00 
    12fe:	66 90                	xchg   ax,ax

0000000000001300 <__libc_csu_init>:
    1300:	f3 0f 1e fa          	endbr64 
    1304:	41 57                	push   r15
    1306:	4c 8d 3d db 2a 00 00 	lea    r15,[rip+0x2adb]        # 3de8 <__frame_dummy_init_array_entry>
    130d:	41 56                	push   r14
    130f:	49 89 d6             	mov    r14,rdx
    1312:	41 55                	push   r13
    1314:	49 89 f5             	mov    r13,rsi
    1317:	41 54                	push   r12
    1319:	41 89 fc             	mov    r12d,edi
    131c:	55                   	push   rbp
    131d:	48 8d 2d cc 2a 00 00 	lea    rbp,[rip+0x2acc]        # 3df0 <__init_array_end>
    1324:	53                   	push   rbx
    1325:	4c 29 fd             	sub    rbp,r15
    1328:	48 83 ec 08          	sub    rsp,0x8
    132c:	e8 cf fc ff ff       	call   1000 <_init>
    1331:	48 c1 fd 03          	sar    rbp,0x3
    1335:	74 1f                	je     1356 <__libc_csu_init+0x56>
    1337:	31 db                	xor    ebx,ebx
    1339:	0f 1f 80 00 00 00 00 	nop    DWORD PTR [rax+0x0]
    1340:	4c 89 f2             	mov    rdx,r14
    1343:	4c 89 ee             	mov    rsi,r13
    1346:	44 89 e7             	mov    edi,r12d
    1349:	41 ff 14 df          	call   QWORD PTR [r15+rbx*8]
    134d:	48 83 c3 01          	add    rbx,0x1
    1351:	48 39 dd             	cmp    rbp,rbx
    1354:	75 ea                	jne    1340 <__libc_csu_init+0x40>
    1356:	48 83 c4 08          	add    rsp,0x8
    135a:	5b                   	pop    rbx
    135b:	5d                   	pop    rbp
    135c:	41 5c                	pop    r12
    135e:	41 5d                	pop    r13
    1360:	41 5e                	pop    r14
    1362:	41 5f                	pop    r15
    1364:	c3                   	ret    
    1365:	66 66 2e 0f 1f 84 00 	data16 nop WORD PTR cs:[rax+rax*1+0x0]
    136c:	00 00 00 00 

0000000000001370 <__libc_csu_fini>:
    1370:	f3 0f 1e fa          	endbr64 
    1374:	c3                   	ret    

Disassembly of section .fini:

0000000000001378 <_fini>:
    1378:	f3 0f 1e fa          	endbr64 
    137c:	48 83 ec 08          	sub    rsp,0x8
    1380:	48 83 c4 08          	add    rsp,0x8
    1384:	c3                   	ret    
